; Function Attrs: mustprogress uwtable
define internal noundef ptr @_ZN6icu_75L27RemoveTransliterator_createERKNS_13UnicodeStringENS_14Transliterator5TokenE(ptr nocapture nonnull readnone align 8 %0, ptr nocapture readnone %.coerce) #1 personality ptr @__gxx_personality_v0 {
entry:
  %call = tail call noundef ptr @_ZN6icu_757UMemorynwEm(i64 noundef 88) #5
  %new.isnull = icmp eq ptr %call, null
  br i1 %new.isnull, label %new.cont, label %new.notnull

new.notnull:                                      ; preds = %entry
  invoke void @_ZN6icu_7520RemoveTransliteratorC1Ev(ptr noundef nonnull align 8 dereferenceable(84) %call)
          to label %new.cont unwind label %lpad

new.cont:                                         ; preds = %new.notnull, %entry
  ret ptr %call

lpad:                                             ; preds = %new.notnull
  %1 = landingpad { ptr, i32 }
          cleanup
  tail call void @_ZN6icu_757UMemorydlEPv(ptr noundef nonnull %call) #5
  resume { ptr, i32 } %1
}